ccopy_reg
_reconstructor
p1
(cargparse
Namespace
p2
c__builtin__
object
p3
NtRp4
(dp5
S'num_epochs'
p6
I50
sS'grad_clip'
p7
F5
sS'rnn_size'
p8
I128
sS'data_dir'
p9
S'data/tinyshakespeare'
p10
sS'vocab_size'
p11
I65
sS'learning_rate'
p12
F0.002
sS'save_dir'
p13
S'save'
p14
sS'batch_size'
p15
I50
sS'decay_rate'
p16
F0.96999999999999997
sS'init_from'
p17
NsS'seq_length'
p18
I50
sS'num_layers'
p19
I2
sS'model'
p20
S'lstm'
p21
sS'save_every'
p22
I1000
sb.